(lp0
(dp1
S'time'
p2
F237322.8
sS'CPI'
p3
F1.389275
sS'cycles'
p4
I17980
sS'name'
p5
S'fib_rec'
p6
sS'instructions'
p7
I12942
sa(dp8
g2
F1452.0
sg3
F0.853846
sg4
I111
sg5
S'copy'
p9
sg7
I130
sa(dp10
g2
F6151.2
sg3
F1.436923
sg4
I467
sg5
S'mult'
p11
sg7
I325
sa(dp12
g2
F1623.6
sg3
F0.639175
sg4
I124
sg5
S'parallel'
p13
sg7
I194
sa(dp14
g2
F109058.4
sg3
F0.744012
sg4
I8263
sg5
S'parsort'
p15
sg7
I11106
sa(dp16
g2
F255842.4
sg3
F0.983709
sg4
I19383
sg5
S'objsort'
p17
sg7
I19704
sa(dp18
g2
F1412.4
sg3
F1.317073
sg4
I108
sg5
S'evens'
p19
sg7
I82
sa(dp20
g2
F6824.4
sg3
F0.866221
sg4
I518
sg5
S'insertion'
p21
sg7
I598
sa(dp22
g2
F6454.8
sg3
F2.139738
sg4
I490
sg5
S'btest1'
p23
sg7
I229
sa(dp24
g2
F12804.0
sg3
F2.134066
sg4
I971
sg5
S'btest2'
p25
sg7
I455
sa(dp26
g2
F4184.4
sg3
F0.538983
sg4
I318
sg5
S'copy_long'
p27
sg7
I590
sa(dp28
g2
F2956.8
sg3
F0.707547
sg4
I225
sg5
S'evens_long'
p29
sg7
I318
sa(dp30
g2
F4606.8
sg3
F0.558214
sg4
I350
sg5
S'fib_long'
p31
sg7
I627
sa(dp32
g2
F21582.0
sg3
F1.21275
sg4
I1636
sg5
S'sort'
p33
sg7
I1349
sa(dp34
g2
F1544.4
sg3
F0.802721
sg4
I118
sg5
S'fib'
p35
sg7
I147
sa.