(lp0
(dp1
S'time'
p2
F237758.4
sS'CPI'
p3
F1.391825
sS'cycles'
p4
I18013
sS'name'
p5
S'fib_rec'
p6
sS'instructions'
p7
I12942
sa(dp8
g2
F1491.6
sg3
F0.876923
sg4
I114
sg5
S'copy'
p9
sg7
I130
sa(dp10
g2
F6375.6
sg3
F1.489231
sg4
I484
sg5
S'mult'
p11
sg7
I325
sa(dp12
g2
F1663.2
sg3
F0.654639
sg4
I127
sg5
S'parallel'
p13
sg7
I194
sa(dp14
g2
F118615.2
sg3
F0.809202
sg4
I8987
sg5
S'parsort'
p15
sg7
I11106
sa(dp16
g2
F322198.8
sg3
F1.238835
sg4
I24410
sg5
S'objsort'
p17
sg7
I19704
sa(dp18
g2
F1452.0
sg3
F1.353659
sg4
I111
sg5
S'evens'
p19
sg7
I82
sa(dp20
g2
F6916.8
sg3
F0.877926
sg4
I525
sg5
S'insertion'
p21
sg7
I598
sa(dp22
g2
F11998.8
sg3
F3.973799
sg4
I910
sg5
S'btest1'
p23
sg7
I229
sa(dp24
g2
F19417.2
sg3
F3.235165
sg4
I1472
sg5
S'btest2'
p25
sg7
I455
sa(dp26
g2
F4131.6
sg3
F0.532203
sg4
I314
sg5
S'copy_long'
p27
sg7
I590
sa(dp28
g2
F2943.6
sg3
F0.704403
sg4
I224
sg5
S'evens_long'
p29
sg7
I318
sa(dp30
g2
F4369.2
sg3
F0.529506
sg4
I332
sg5
S'fib_long'
p31
sg7
I627
sa(dp32
g2
F22281.6
sg3
F1.252039
sg4
I1689
sg5
S'sort'
p33
sg7
I1349
sa(dp34
g2
F1584.0
sg3
F0.823129
sg4
I121
sg5
S'fib'
p35
sg7
I147
sa.