(lp0
(dp1
S'time'
p2
F254198.0
sS'CPI'
p3
F1.40292
sS'cycles'
p4
I18158
sS'name'
p5
S'fib_rec'
p6
sS'instructions'
p7
I12943
sa(dp8
g2
F2254.0
sg3
F1.236641
sg4
I162
sg5
S'copy'
p9
sg7
I131
sa(dp10
g2
F11130.0
sg3
F2.441718
sg4
I796
sg5
S'mult'
p11
sg7
I326
sa(dp12
g2
F2478.0
sg3
F0.912821
sg4
I178
sg5
S'parallel'
p13
sg7
I195
sa(dp14
g2
F169722.0
sg3
F1.091564
sg4
I12124
sg5
S'parsort'
p15
sg7
I11107
sa(dp16
g2
F458024.0
sg3
F1.66034
sg4
I32717
sg5
S'objsort'
p17
sg7
I19705
sa(dp18
g2
F1918.0
sg3
F1.662651
sg4
I138
sg5
S'evens'
p19
sg7
I83
sa(dp20
g2
F8736.0
sg3
F1.043406
sg4
I625
sg5
S'insertion'
p21
sg7
I599
sa(dp22
g2
F24164.0
sg3
F7.508696
sg4
I1727
sg5
S'btest1'
p23
sg7
I230
sa(dp24
g2
F40894.0
sg3
F6.407895
sg4
I2922
sg5
S'btest2'
p25
sg7
I456
sa(dp26
g2
F3556.0
sg3
F2.931034
sg4
I255
sg5
S'copy_long'
p27
sg7
I87
sa(dp28
g2
F5292.0
sg3
F1.188088
sg4
I379
sg5
S'evens_long'
p29
sg7
I319
sa(dp30
g2
F9030.0
sg3
F1.028662
sg4
I646
sg5
S'fib_long'
p31
sg7
I628
sa(dp32
g2
F25326.0
sg3
F1.340741
sg4
I1810
sg5
S'sort'
p33
sg7
I1350
sa(dp34
g2
F700014.0
sg3
F134.77628
sg4
I50002
sg5
S'fib'
p35
sg7
I371
sa(dp36
g2
F3458.0
sg3
F4.769231
sg4
I248
sg5
S'badnewarr'
p37
sg7
I52
sa(dp38
g2
F700014.0
sg3
F322.593548
sg4
I50002
sg5
S'badsub'
p39
sg7
I155
sa(dp40
g2
F8050.0
sg3
F2.729858
sg4
I576
sg5
S'strcmp'
p41
sg7
I211
sa(dp42
g2
F169890.0
sg3
F4.453578
sg4
I12136
sg5
S'strcpy'
p43
sg7
I2725
sa(dp44
g2
F7056.0
sg3
F4.809524
sg4
I505
sg5
S'strlen'
p45
sg7
I105
sa(dp46
g2
F910.0
sg3
F5.076923
sg4
I66
sg5
S'queue_mod'
p47
sg7
I13
sa(dp48
g2
F5740.0
sg3
F1.467857
sg4
I411
sg5
S'simple'
p49
sg7
I280
sa(dp50
g2
F700014.0
sg3
F268.827957
sg4
I50002
sg5
S'factorial'
p51
sg7
I186
sa.