(lp0
(dp1
S'time'
p2
F284974.8
sS'CPI'
p3
F1.668212
sS'cycles'
p4
I21590
sS'name'
p5
S'fib_rec'
p6
sS'instructions'
p7
I12942
sa(dp8
g2
F2521.2
sg3
F1.476923
sg4
I192
sg5
S'copy'
p9
sg7
I130
sa(dp10
g2
F6375.6
sg3
F1.489231
sg4
I484
sg5
S'mult'
p11
sg7
I325
sa(dp12
g2
F2890.8
sg3
F1.134021
sg4
I220
sg5
S'parallel'
p13
sg7
I194
sa(dp14
g2
F157423.2
sg3
F1.073924
sg4
I11927
sg5
S'parsort'
p15
sg7
I11106
sa(dp16
g2
F1204750.8
sg3
F4.632054
sg4
I91270
sg5
S'objsort'
p17
sg7
I19704
sa(dp18
g2
F2772.0
sg3
F2.573171
sg4
I211
sg5
S'evens'
p19
sg7
I82
sa(dp20
g2
F9913.2
sg3
F1.257525
sg4
I752
sg5
S'insertion'
p21
sg7
I598
sa(dp22
g2
F10903.2
sg3
F3.611354
sg4
I827
sg5
S'btest1'
p23
sg7
I229
sa(dp24
g2
F18955.2
sg3
F3.158242
sg4
I1437
sg5
S'btest2'
p25
sg7
I455
sa(dp26
g2
F4910.4
sg3
F0.632203
sg4
I373
sg5
S'copy_long'
p27
sg7
I590
sa(dp28
g2
F3696.0
sg3
F0.883648
sg4
I281
sg5
S'evens_long'
p29
sg7
I318
sa(dp30
g2
F5042.4
sg3
F0.610845
sg4
I383
sg5
S'fib_long'
p31
sg7
I627
sa(dp32
g2
F30228.0
sg3
F1.698295
sg4
I2291
sg5
S'sort'
p33
sg7
I1349
sa(dp34
g2
F2217.6
sg3
F1.14966
sg4
I169
sg5
S'fib'
p35
sg7
I147
sa.