(lp0
S'fib_rec'
p1
aS'copy'
p2
aS'mult'
p3
aS'parallel'
p4
aS'parsort'
p5
aS'objsort'
p6
aS'evens'
p7
aS'insertion'
p8
aS'btest1'
p9
aS'btest2'
p10
aS'copy_long'
p11
aS'evens_long'
p12
aS'fib_long'
p13
aS'sort'
p14
aS'fib'
p15
a.