(lp0
(dp1
S'time'
p2
F1250.0
sS'CPI'
p3
F0.851351
sS'cycles'
p4
I126
sS'name'
p5
S'fib'
p6
sS'instructions'
p7
I148
sa(dp8
g2
F200010.0
sg3
F1.545391
sg4
I20002
sg5
S'fib_rec'
p9
sg7
I12943
sa(dp10
g2
F1260.0
sg3
F0.969466
sg4
I127
sg5
S'copy'
p11
sg7
I131
sa(dp12
g2
F7270.0
sg3
F2.233129
sg4
I728
sg5
S'mult'
p13
sg7
I326
sa(dp14
g2
F1290.0
sg3
F0.666667
sg4
I130
sg5
S'parallel'
p15
sg7
I195
sa(dp16
g2
F82710.0
sg3
F0.744756
sg4
I8272
sg5
S'parsort'
p17
sg7
I11107
sa(dp18
g2
F200010.0
sg3
F1.015072
sg4
I20002
sg5
S'objsort'
p19
sg7
I19705
sa(dp20
g2
F1090.0
sg3
F1.325301
sg4
I110
sg5
S'evens'
p21
sg7
I83
sa(dp22
g2
F200010.0
sg3
F33.392321
sg4
I20002
sg5
S'insertion'
p23
sg7
I599
sa(dp24
g2
F5860.0
sg3
F2.552174
sg4
I587
sg5
S'btest1'
p25
sg7
I230
sa(dp26
g2
F11000.0
sg3
F2.414474
sg4
I1101
sg5
S'btest2'
p27
sg7
I456
sa(dp28
g2
F840.0
sg3
F0.977011
sg4
I85
sg5
S'copy_long'
p29
sg7
I87
sa(dp30
g2
F2380.0
sg3
F0.749216
sg4
I239
sg5
S'evens_long'
p31
sg7
I319
sa(dp32
g2
F3670.0
sg3
F0.585987
sg4
I368
sg5
S'fib_long'
p33
sg7
I628
sa.