(lp0
(dp1
S'time'
p2
F253470.0
sS'CPI'
p3
F1.398903
sS'cycles'
p4
I18106
sS'name'
p5
S'fib_rec'
p6
sS'instructions'
p7
I12943
sa(dp8
g2
F2002.0
sg3
F1.099237
sg4
I144
sg5
S'copy'
p9
sg7
I131
sa(dp10
g2
F10388.0
sg3
F2.279141
sg4
I743
sg5
S'mult'
p11
sg7
I326
sa(dp12
g2
F2100.0
sg3
F0.774359
sg4
I151
sg5
S'parallel'
p13
sg7
I195
sa(dp14
g2
F167818.0
sg3
F1.079319
sg4
I11988
sg5
S'parsort'
p15
sg7
I11107
sa(dp16
g2
F455154.0
sg3
F1.649937
sg4
I32512
sg5
S'objsort'
p17
sg7
I19705
sa(dp18
g2
F1680.0
sg3
F1.457831
sg4
I121
sg5
S'evens'
p19
sg7
I83
sa(dp20
g2
F8064.0
sg3
F0.963272
sg4
I577
sg5
S'insertion'
p21
sg7
I599
sa(dp22
g2
F13608.0
sg3
F4.230435
sg4
I973
sg5
S'btest1'
p23
sg7
I230
sa(dp24
g2
F17710.0
sg3
F2.776316
sg4
I1266
sg5
S'btest2'
p25
sg7
I456
sa(dp26
g2
F5558.0
sg3
F0.673435
sg4
I398
sg5
S'copy_long'
p27
sg7
I591
sa(dp28
g2
F4172.0
sg3
F0.937304
sg4
I299
sg5
S'evens_long'
p29
sg7
I319
sa(dp30
g2
F6524.0
sg3
F0.743631
sg4
I467
sg5
S'fib_long'
p31
sg7
I628
sa(dp32
g2
F24850.0
sg3
F1.315556
sg4
I1776
sg5
S'sort'
p33
sg7
I1350
sa(dp34
g2
F2100.0
sg3
F1.02027
sg4
I151
sg5
S'fib'
p35
sg7
I148
sa.